target datalayout = "e-m:e-p270:32:32-p271:32:32-p272:64:64-i64:64-i128:128-f80:128-n8:16:32:64-S128"
target triple = "x86_64-pc-linux-gnu"

%struct.PJconsts = type { ptr, ptr, ptr, ptr, ptr, ptr, ptr, ptr, ptr, ptr, ptr, ptr, i32, ptr, ptr, ptr, ptr, ptr, ptr, ptr, ptr, double, double, double, double, double, double, double, double, double, double, double, double, double, double, double, double, double, double, double, double, double, double, i32, i32, i32, i32, i32, i32, i32, i32, i32, i32, i32, ptr, ptr, ptr, ptr, ptr, ptr, double, double, double, double, double, double, double, double, double, double, double, i32, [7 x double], i32, ptr, ptr, double, double, i32, [4 x i8], %"class.std::shared_ptr", i8, double, i8, %"class.std::__cxx11::basic_string", %"class.std::__cxx11::basic_string", %"class.std::__cxx11::basic_string", i8, %"class.std::vector", i32, %"class.std::vector.3", i32, i8, i8, i8, ptr }
%"class.std::shared_ptr" = type { %"class.std::__shared_ptr" }
%"class.std::__shared_ptr" = type { ptr, %"class.std::__shared_count" }
%"class.std::__shared_count" = type { ptr }
%"class.std::__cxx11::basic_string" = type { %"struct.std::__cxx11::basic_string<char>::_Alloc_hider", i64, %union.anon }
%"struct.std::__cxx11::basic_string<char>::_Alloc_hider" = type { ptr }
%union.anon = type { i64, [8 x i8] }
%"class.std::vector" = type { %"struct.std::_Vector_base" }
%"struct.std::_Vector_base" = type { %"struct.std::_Vector_base<osgeo::proj::operation::GridDescription, std::allocator<osgeo::proj::operation::GridDescription>>::_Vector_impl" }
%"struct.std::_Vector_base<osgeo::proj::operation::GridDescription, std::allocator<osgeo::proj::operation::GridDescription>>::_Vector_impl" = type { %"struct.std::_Vector_base<osgeo::proj::operation::GridDescription, std::allocator<osgeo::proj::operation::GridDescription>>::_Vector_impl_data" }
%"struct.std::_Vector_base<osgeo::proj::operation::GridDescription, std::allocator<osgeo::proj::operation::GridDescription>>::_Vector_impl_data" = type { ptr, ptr, ptr }
%"class.std::vector.3" = type { %"struct.std::_Vector_base.4" }
%"struct.std::_Vector_base.4" = type { %"struct.std::_Vector_base<PJCoordOperation, std::allocator<PJCoordOperation>>::_Vector_impl" }
%"struct.std::_Vector_base<PJCoordOperation, std::allocator<PJCoordOperation>>::_Vector_impl" = type { %"struct.std::_Vector_base<PJCoordOperation, std::allocator<PJCoordOperation>>::_Vector_impl_data" }
%"struct.std::_Vector_base<PJCoordOperation, std::allocator<PJCoordOperation>>::_Vector_impl_data" = type { ptr, ptr, ptr }
%"struct.(anonymous namespace)::pj_moll_data" = type { double, double, double }
%struct.PJ_LP = type { double, double }
%struct.PJ_XY = type { double, double }

; Function Attrs: mustprogress nounwind uwtable
define internal { double, double } @_ZL14moll_s_forward5PJ_LPP8PJconsts(double %0, double %1, ptr noundef %2) #4 {
  %4 = alloca %struct.PJ_XY, align 8
  %5 = alloca %struct.PJ_LP, align 8
  %6 = alloca ptr, align 8
  %7 = alloca ptr, align 8
  %8 = alloca i32, align 4
  %9 = alloca double, align 8
  %10 = alloca double, align 8
  %11 = alloca i32, align 4
  %12 = getelementptr inbounds nuw { double, double }, ptr %5, i32 0, i32 0
  store double %0, ptr %12, align 8
  %13 = getelementptr inbounds nuw { double, double }, ptr %5, i32 0, i32 1
  store double %1, ptr %13, align 8
  store ptr %2, ptr %6, align 8, !tbaa !3
  call void @llvm.memset.p0.i64(ptr align 8 %4, i8 0, i64 16, i1 false)
  call void @llvm.lifetime.start.p0(i64 8, ptr %7) #8
  %14 = load ptr, ptr %6, align 8, !tbaa !3
  %15 = getelementptr inbounds nuw %struct.PJconsts, ptr %14, i32 0, i32 11
  %16 = load ptr, ptr %15, align 8, !tbaa !43
  store ptr %16, ptr %7, align 8, !tbaa !41
  call void @llvm.lifetime.start.p0(i64 4, ptr %8) #8
  call void @llvm.lifetime.start.p0(i64 8, ptr %9) #8
  %17 = load ptr, ptr %7, align 8, !tbaa !41
  %18 = getelementptr inbounds nuw %"struct.(anonymous namespace)::pj_moll_data", ptr %17, i32 0, i32 2
  %19 = load double, ptr %18, align 8, !tbaa !50
  %20 = getelementptr inbounds nuw %struct.PJ_LP, ptr %5, i32 0, i32 1
  %21 = load double, ptr %20, align 8, !tbaa !56
  %22 = call double @sin(double noundef %21) #8, !tbaa !46
  %23 = fmul double %19, %22
  store double %23, ptr %9, align 8, !tbaa !44
  store i32 30, ptr %8, align 4, !tbaa !46
  br label %24

24:                                               ; preds = %53, %3
  %25 = load i32, ptr %8, align 4, !tbaa !46
  %26 = icmp ne i32 %25, 0
  br i1 %26, label %27, label %56

27:                                               ; preds = %24
  call void @llvm.lifetime.start.p0(i64 8, ptr %10) #8
  %28 = getelementptr inbounds nuw %struct.PJ_LP, ptr %5, i32 0, i32 1
  %29 = load double, ptr %28, align 8, !tbaa !56
  %30 = getelementptr inbounds nuw %struct.PJ_LP, ptr %5, i32 0, i32 1
  %31 = load double, ptr %30, align 8, !tbaa !56
  %32 = call double @sin(double noundef %31) #8, !tbaa !46
  %33 = fadd double %29, %32
  %34 = load double, ptr %9, align 8, !tbaa !44
  %35 = fsub double %33, %34
  %36 = getelementptr inbounds nuw %struct.PJ_LP, ptr %5, i32 0, i32 1
  %37 = load double, ptr %36, align 8, !tbaa !56
  %38 = call double @cos(double noundef %37) #8, !tbaa !46
  %39 = fadd double 1.000000e+00, %38
  %40 = fdiv double %35, %39
  store double %40, ptr %10, align 8, !tbaa !44
  %41 = load double, ptr %10, align 8, !tbaa !44
  %42 = getelementptr inbounds nuw %struct.PJ_LP, ptr %5, i32 0, i32 1
  %43 = load double, ptr %42, align 8, !tbaa !56
  %44 = fsub double %43, %41
  store double %44, ptr %42, align 8, !tbaa !56
  %45 = load double, ptr %10, align 8, !tbaa !44
  %46 = call double @llvm.fabs.f64(double %45)
  %47 = fcmp olt double %46, 0x3E7AD7F29ABCAF48
  br i1 %47, label %48, label %49

48:                                               ; preds = %27
  store i32 2, ptr %11, align 4
  br label %50

49:                                               ; preds = %27
  store i32 0, ptr %11, align 4
  br label %50

50:                                               ; preds = %49, %48
  call void @llvm.lifetime.end.p0(i64 8, ptr %10) #8
  %51 = load i32, ptr %11, align 4
  switch i32 %51, label %90 [
    i32 0, label %52
    i32 2, label %56
  ]

52:                                               ; preds = %50
  br label %53

53:                                               ; preds = %52
  %54 = load i32, ptr %8, align 4, !tbaa !46
  %55 = add nsw i32 %54, -1
  store i32 %55, ptr %8, align 4, !tbaa !46
  br label %24, !llvm.loop !60

56:                                               ; preds = %50, %24
  %57 = load i32, ptr %8, align 4, !tbaa !46
  %58 = icmp ne i32 %57, 0
  br i1 %58, label %65, label %59

59:                                               ; preds = %56
  %60 = getelementptr inbounds nuw %struct.PJ_LP, ptr %5, i32 0, i32 1
  %61 = load double, ptr %60, align 8, !tbaa !56
  %62 = fcmp olt double %61, 0.000000e+00
  %63 = select i1 %62, double 0xBFF921FB54442D18, double 0x3FF921FB54442D18
  %64 = getelementptr inbounds nuw %struct.PJ_LP, ptr %5, i32 0, i32 1
  store double %63, ptr %64, align 8, !tbaa !56
  br label %69

65:                                               ; preds = %56
  %66 = getelementptr inbounds nuw %struct.PJ_LP, ptr %5, i32 0, i32 1
  %67 = load double, ptr %66, align 8, !tbaa !56
  %68 = fmul double %67, 5.000000e-01
  store double %68, ptr %66, align 8, !tbaa !56
  br label %69

69:                                               ; preds = %65, %59
  %70 = load ptr, ptr %7, align 8, !tbaa !41
  %71 = getelementptr inbounds nuw %"struct.(anonymous namespace)::pj_moll_data", ptr %70, i32 0, i32 0
  %72 = load double, ptr %71, align 8, !tbaa !47
  %73 = getelementptr inbounds nuw %struct.PJ_LP, ptr %5, i32 0, i32 0
  %74 = load double, ptr %73, align 8, !tbaa !59
  %75 = fmul double %72, %74
  %76 = getelementptr inbounds nuw %struct.PJ_LP, ptr %5, i32 0, i32 1
  %77 = load double, ptr %76, align 8, !tbaa !56
  %78 = call double @cos(double noundef %77) #8, !tbaa !46
  %79 = fmul double %75, %78
  %80 = getelementptr inbounds nuw %struct.PJ_XY, ptr %4, i32 0, i32 0
  store double %79, ptr %80, align 8, !tbaa !58
  %81 = load ptr, ptr %7, align 8, !tbaa !41
  %82 = getelementptr inbounds nuw %"struct.(anonymous namespace)::pj_moll_data", ptr %81, i32 0, i32 1
  %83 = load double, ptr %82, align 8, !tbaa !49
  %84 = getelementptr inbounds nuw %struct.PJ_LP, ptr %5, i32 0, i32 1
  %85 = load double, ptr %84, align 8, !tbaa !56
  %86 = call double @sin(double noundef %85) #8, !tbaa !46
  %87 = fmul double %83, %86
  %88 = getelementptr inbounds nuw %struct.PJ_XY, ptr %4, i32 0, i32 1
  store double %87, ptr %88, align 8, !tbaa !54
  store i32 1, ptr %11, align 4
  call void @llvm.lifetime.end.p0(i64 8, ptr %9) #8
  call void @llvm.lifetime.end.p0(i64 4, ptr %8) #8
  call void @llvm.lifetime.end.p0(i64 8, ptr %7) #8
  %89 = load { double, double }, ptr %4, align 8
  ret { double, double } %89

90:                                               ; preds = %50
  unreachable
}