; Function Attrs: mustprogress nofree nounwind memory(readwrite, inaccessiblemem: write) uwtable
define internal { double, double } @_ZL14moll_s_forward5PJ_LPP8PJconsts(double %0, double %1, ptr noundef readonly captures(none) %2) #3 {
  %4 = getelementptr inbounds nuw i8, ptr %2, i64 88
  %5 = load ptr, ptr %4, align 8, !tbaa !3
  %6 = getelementptr inbounds nuw i8, ptr %5, i64 16
  %7 = load double, ptr %6, align 8, !tbaa !40
  %8 = tail call double @sin(double noundef %1) #7, !tbaa !49
  %9 = fmul double %7, %8
  br label %12

10:                                               ; preds = %12
  %11 = add nsw i32 %.01924, -1
  %.not = icmp eq i32 %11, 0
  br i1 %.not, label %22, label %12, !llvm.loop !50

12:                                               ; preds = %3, %10
  %.01924 = phi i32 [ 30, %3 ], [ %11, %10 ]
  %.sroa.2.023 = phi double [ %1, %3 ], [ %19, %10 ]
  %13 = tail call double @sin(double noundef %.sroa.2.023) #7, !tbaa !49
  %14 = fadd double %.sroa.2.023, %13
  %15 = fsub double %14, %9
  %16 = tail call double @cos(double noundef %.sroa.2.023) #7, !tbaa !49
  %17 = fadd double %16, 1.000000e+00
  %18 = fdiv double %15, %17
  %19 = fsub double %.sroa.2.023, %18
  %20 = tail call double @llvm.fabs.f64(double %18)
  %21 = fcmp olt double %20, 0x3E7AD7F29ABCAF48
  br i1 %21, label %25, label %10

22:                                               ; preds = %10
  %23 = fcmp olt double %19, 0.000000e+00
  %24 = select i1 %23, double 0xBFF921FB54442D18, double 0x3FF921FB54442D18
  br label %27

25:                                               ; preds = %12
  %26 = fmul double %19, 5.000000e-01
  br label %27

27:                                               ; preds = %25, %22
  %.sroa.2.2 = phi double [ %26, %25 ], [ %24, %22 ]
  %28 = load double, ptr %5, align 8, !tbaa !37
  %29 = fmul double %0, %28
  %30 = tail call double @cos(double noundef %.sroa.2.2) #7, !tbaa !49
  %31 = fmul double %29, %30
  %32 = getelementptr inbounds nuw i8, ptr %5, i64 8
  %33 = load double, ptr %32, align 8, !tbaa !39
  %34 = tail call double @sin(double noundef %.sroa.2.2) #7, !tbaa !49
  %35 = fmul double %33, %34
  %.fca.0.insert = insertvalue { double, double } poison, double %31, 0
  %.fca.1.insert = insertvalue { double, double } %.fca.0.insert, double %35, 1
  ret { double, double } %.fca.1.insert
}